; Function Attrs: mustprogress uwtable
define hidden noundef nonnull align 8 dereferenceable(8) ptr @_ZNK3sat9lookahead11display_sccERSo(ptr nocapture noundef nonnull readonly align 8 dereferenceable(1160) %this, ptr noundef nonnull returned align 8 dereferenceable(8) %out) local_unnamed_addr #3 align 2 {
entry:
  %m_candidates.i = getelementptr inbounds i8, ptr %this, i64 1096
  br label %for.cond.i

for.cond.i:                                       ; preds = %for.body.i, %entry
  %indvars.iv.i = phi i64 [ %indvars.iv.next.i, %for.body.i ], [ 0, %entry ]
  %0 = load ptr, ptr %m_candidates.i, align 8
  %cmp.i.i = icmp eq ptr %0, null
  br i1 %cmp.i.i, label %_ZNK6vectorIN3sat9lookahead9candidateELb0EjE4sizeEv.exit.i, label %if.end.i.i

if.end.i.i:                                       ; preds = %for.cond.i
  %arrayidx.i.i = getelementptr inbounds i8, ptr %0, i64 -4
  %1 = load i32, ptr %arrayidx.i.i, align 4
  br label %_ZNK6vectorIN3sat9lookahead9candidateELb0EjE4sizeEv.exit.i

_ZNK6vectorIN3sat9lookahead9candidateELb0EjE4sizeEv.exit.i: ; preds = %if.end.i.i, %for.cond.i
  %retval.0.i.i = phi i32 [ %1, %if.end.i.i ], [ 0, %for.cond.i ]
  %2 = zext i32 %retval.0.i.i to i64
  %cmp.i = icmp ult i64 %indvars.iv.i, %2
  br i1 %cmp.i, label %for.body.i, label %for.cond

for.body.i:                                       ; preds = %_ZNK6vectorIN3sat9lookahead9candidateELb0EjE4sizeEv.exit.i
  %arrayidx.i5.i = getelementptr inbounds %"struct.sat::lookahead::candidate", ptr %0, i64 %indvars.iv.i
  %3 = load i32, ptr %arrayidx.i5.i, align 8
  %shl.i.i = shl i32 %3, 1
  %call4.i = tail call noundef nonnull align 8 dereferenceable(8) ptr @_ZNK3sat9lookahead11display_dfsERSoNS_7literalE(ptr noundef nonnull align 8 dereferenceable(1160) %this, ptr noundef nonnull align 8 dereferenceable(8) %out, i32 %shl.i.i)
  %xor.i.i = or disjoint i32 %shl.i.i, 1
  %call11.i = tail call noundef nonnull align 8 dereferenceable(8) ptr @_ZNK3sat9lookahead11display_dfsERSoNS_7literalE(ptr noundef nonnull align 8 dereferenceable(1160) %this, ptr noundef nonnull align 8 dereferenceable(8) %out, i32 %xor.i.i)
  %indvars.iv.next.i = add nuw nsw i64 %indvars.iv.i, 1
  br label %for.cond.i, !llvm.loop !40

for.cond:                                         ; preds = %_ZNK6vectorIN3sat9lookahead9candidateELb0EjE4sizeEv.exit.i, %for.body
  %4 = phi ptr [ %.pre, %for.body ], [ %0, %_ZNK6vectorIN3sat9lookahead9candidateELb0EjE4sizeEv.exit.i ]
  %indvars.iv = phi i64 [ %indvars.iv.next, %for.body ], [ 0, %_ZNK6vectorIN3sat9lookahead9candidateELb0EjE4sizeEv.exit.i ]
  %cmp.i6 = icmp eq ptr %4, null
  br i1 %cmp.i6, label %_ZNK6vectorIN3sat9lookahead9candidateELb0EjE4sizeEv.exit, label %if.end.i

if.end.i:                                         ; preds = %for.cond
  %arrayidx.i = getelementptr inbounds i8, ptr %4, i64 -4
  %5 = load i32, ptr %arrayidx.i, align 4
  br label %_ZNK6vectorIN3sat9lookahead9candidateELb0EjE4sizeEv.exit

_ZNK6vectorIN3sat9lookahead9candidateELb0EjE4sizeEv.exit: ; preds = %for.cond, %if.end.i
  %retval.0.i = phi i32 [ %5, %if.end.i ], [ 0, %for.cond ]
  %6 = zext i32 %retval.0.i to i64
  %cmp = icmp ult i64 %indvars.iv, %6
  br i1 %cmp, label %for.body, label %for.end

for.body:                                         ; preds = %_ZNK6vectorIN3sat9lookahead9candidateELb0EjE4sizeEv.exit
  %arrayidx.i7 = getelementptr inbounds %"struct.sat::lookahead::candidate", ptr %4, i64 %indvars.iv
  %7 = load i32, ptr %arrayidx.i7, align 8
  %shl.i = shl i32 %7, 1
  %call5 = tail call noundef nonnull align 8 dereferenceable(8) ptr @_ZNK3sat9lookahead11display_sccERSoNS_7literalE(ptr noundef nonnull align 8 dereferenceable(1160) %this, ptr noundef nonnull align 8 dereferenceable(8) %out, i32 %shl.i)
  %xor.i = or disjoint i32 %shl.i, 1
  %call12 = tail call noundef nonnull align 8 dereferenceable(8) ptr @_ZNK3sat9lookahead11display_sccERSoNS_7literalE(ptr noundef nonnull align 8 dereferenceable(1160) %this, ptr noundef nonnull align 8 dereferenceable(8) %out, i32 %xor.i)
  %indvars.iv.next = add nuw nsw i64 %indvars.iv, 1
  %.pre = load ptr, ptr %m_candidates.i, align 8
  br label %for.cond, !llvm.loop !45

for.end:                                          ; preds = %_ZNK6vectorIN3sat9lookahead9candidateELb0EjE4sizeEv.exit
  ret ptr %out
}